target datalayout = "e-m:e-p270:32:32-p271:32:32-p272:64:64-i64:64-i128:128-f80:128-n8:16:32:64-S128"
target triple = "x86_64-pc-linux-gnu"

%struct._zend_executor_globals = type { %struct._zval_struct, %struct._zval_struct, [32 x ptr], ptr, ptr, %struct._zend_array, %struct._zend_array, ptr, i32, i8, %struct._zval_struct, i32, ptr, ptr, ptr, ptr, ptr, ptr, i64, ptr, ptr, i32, ptr, i32, i64, i32, i32, i32, i8, i8, %struct.zend_atomic_bool_s, %struct.zend_atomic_bool_s, ptr, i64, ptr, ptr, %struct._zend_array, %struct._zend_array, i32, i8, %struct._zval_struct, %struct._zval_struct, %struct._zend_stack, %struct._zend_stack, %struct._zend_stack, ptr, i32, i32, i64, ptr, ptr, ptr, %struct._zend_objects_store, %struct._zend_lazy_objects_store, ptr, ptr, ptr, [3 x %struct._zend_op], ptr, i8, i8, i64, i32, i32, ptr, [16 x %struct._HashTableIterator], ptr, %union._zend_function, %struct._zend_op, %struct._zend_array, i64, %struct.zend_get_gc_buffer, ptr, ptr, ptr, i64, i8, i32, ptr, ptr, i64, %struct._zend_call_stack, i64, i64, %struct._zend_strtod_state, [6 x ptr] }
%struct.zend_atomic_bool_s = type { i8 }
%struct._zval_struct = type { %union._zend_value, %union.anon, %union.anon.2 }
%union._zend_value = type { i64 }
%union.anon = type { i32 }
%union.anon.2 = type { i32 }
%struct._zend_stack = type { i32, i32, i32, ptr }
%struct._zend_objects_store = type { ptr, i32, i32, i32 }
%struct._zend_lazy_objects_store = type { %struct._zend_array }
%struct._HashTableIterator = type { ptr, i32, i32 }
%union._zend_function = type { %struct._zend_op_array }
%struct._zend_op_array = type { i8, [3 x i8], i32, ptr, ptr, ptr, i32, i32, ptr, ptr, ptr, ptr, i32, ptr, i32, i32, i32, ptr, ptr, ptr, ptr, ptr, i32, i32, ptr, ptr, ptr, i32, i32, i32, i32, ptr, ptr, [6 x ptr] }
%struct._zend_op = type { ptr, %union._znode_op, %union._znode_op, %union._znode_op, i32, i32, i8, i8, i8, i8 }
%union._znode_op = type { i32 }
%struct._zend_array = type { %struct._zend_refcounted_h, %union.anon.4, i32, %union.anon.6, i32, i32, i32, i32, i64, ptr }
%struct._zend_refcounted_h = type { i32, %union.anon.3 }
%union.anon.3 = type { i32 }
%union.anon.4 = type { i32 }
%union.anon.6 = type { ptr }
%struct.zend_get_gc_buffer = type { ptr, ptr, ptr }
%struct._zend_call_stack = type { ptr, i64 }
%struct._zend_strtod_state = type { [8 x ptr], ptr, ptr }
%struct._zend_compiler_globals = type { %struct._zend_stack, ptr, ptr, i32, ptr, ptr, ptr, ptr, i8, i8, i8, i8, i8, %struct._zend_llist, ptr, i8, i8, i8, i8, ptr, i32, i32, %struct._zend_oparray_context, %struct._zend_file_context, ptr, %struct._zend_array, ptr, i64, i8, i8, i8, ptr, ptr, %struct._zend_stack, ptr, i32, ptr, ptr, i64, i64, ptr, ptr, ptr, ptr, i32, ptr, i32, %struct._zend_stack }
%struct._zend_llist = type { ptr, ptr, i64, i64, ptr, i8, ptr }
%struct._zend_oparray_context = type { ptr, ptr, i32, i32, i32, i32, i32, i32, i32, ptr, ptr, ptr, i32, i8 }
%struct._zend_file_context = type { %struct._zend_declarables, ptr, i8, i8, ptr, ptr, ptr, %struct._zend_array }
%struct._zend_declarables = type { i64 }
%struct._zend_constant = type { %struct._zval_struct, ptr, ptr }
%struct.anon.0 = type { i8, i8, %union.anon.1 }
%union.anon.1 = type { i16 }
%struct._zend_string = type { %struct._zend_refcounted_h, i64, i64, [1 x i8] }
%struct._zend_refcounted = type { %struct._zend_refcounted_h }

@executor_globals = external global %struct._zend_executor_globals, align 8
@compiler_globals = external global %struct._zend_compiler_globals, align 8

; Function Attrs: alwaysinline nounwind uwtable
define internal i32 @zend_gc_addref(ptr noundef %0) #2 {
  %2 = alloca ptr, align 8
  store ptr %0, ptr %2, align 8, !tbaa !139
  br label %3

3:                                                ; preds = %1
  br label %4

4:                                                ; preds = %3
  %5 = load ptr, ptr %2, align 8, !tbaa !139
  %6 = getelementptr inbounds nuw %struct._zend_refcounted_h, ptr %5, i32 0, i32 0
  %7 = load i32, ptr %6, align 4, !tbaa !141
  %8 = add i32 %7, 1
  store i32 %8, ptr %6, align 4, !tbaa !141
  ret i32 %8
}

; Function Attrs: alwaysinline nounwind uwtable
define internal ptr @zend_get_special_const(ptr noundef %0, i64 noundef %1) #2 {
  %3 = alloca ptr, align 8
  %4 = alloca ptr, align 8
  %5 = alloca i64, align 8
  store ptr %0, ptr %4, align 8, !tbaa !67
  store i64 %1, ptr %5, align 8, !tbaa !68
  %6 = load i64, ptr %5, align 8, !tbaa !68
  %7 = icmp eq i64 %6, 4
  br i1 %7, label %11, label %8

8:                                                ; preds = %2
  %9 = load i64, ptr %5, align 8, !tbaa !68
  %10 = icmp eq i64 %9, 5
  br i1 %10, label %11, label %15

11:                                               ; preds = %8, %2
  %12 = load ptr, ptr %4, align 8, !tbaa !67
  %13 = load i64, ptr %5, align 8, !tbaa !68
  %14 = call ptr @_zend_get_special_const(ptr noundef %12, i64 noundef %13)
  store ptr %14, ptr %3, align 8
  br label %16

15:                                               ; preds = %8
  store ptr null, ptr %3, align 8
  br label %16

16:                                               ; preds = %15, %11
  %17 = load ptr, ptr %3, align 8
  ret ptr %17
}

; Function Attrs: alwaysinline nounwind uwtable
define internal i32 @zval_addref_p(ptr noundef %0) #2 {
  %2 = alloca ptr, align 8
  store ptr %0, ptr %2, align 8, !tbaa !9
  %3 = load ptr, ptr %2, align 8, !tbaa !9
  %4 = getelementptr inbounds nuw %struct._zval_struct, ptr %3, i32 0, i32 1
  %5 = getelementptr inbounds nuw %struct.anon.0, ptr %4, i32 0, i32 1
  %6 = load i8, ptr %5, align 1, !tbaa !47
  %7 = zext i8 %6 to i32
  %8 = icmp ne i32 %7, 0
  call void @llvm.assume(i1 %8)
  %9 = load ptr, ptr %2, align 8, !tbaa !9
  %10 = getelementptr inbounds nuw %struct._zval_struct, ptr %9, i32 0, i32 0
  %11 = load ptr, ptr %10, align 8, !tbaa !47
  %12 = getelementptr inbounds nuw %struct._zend_refcounted, ptr %11, i32 0, i32 0
  %13 = call i32 @zend_gc_addref(ptr noundef %12)
  ret i32 %13
}

; Function Attrs: alwaysinline nounwind uwtable
define internal ptr @zend_hash_find_ptr(ptr noundef %0, ptr noundef %1) #2 {
  %3 = alloca ptr, align 8
  %4 = alloca ptr, align 8
  %5 = alloca ptr, align 8
  %6 = alloca ptr, align 8
  %7 = alloca i32, align 4
  store ptr %0, ptr %4, align 8, !tbaa !66
  store ptr %1, ptr %5, align 8, !tbaa !4
  call void @llvm.lifetime.start.p0(i64 8, ptr %6) #14
  %8 = load ptr, ptr %4, align 8, !tbaa !66
  %9 = load ptr, ptr %5, align 8, !tbaa !4
  %10 = call ptr @zend_hash_find(ptr noundef %8, ptr noundef %9)
  store ptr %10, ptr %6, align 8, !tbaa !9
  %11 = load ptr, ptr %6, align 8, !tbaa !9
  %12 = icmp ne ptr %11, null
  br i1 %12, label %13, label %21

13:                                               ; preds = %2
  %14 = load ptr, ptr %6, align 8, !tbaa !9
  %15 = getelementptr inbounds nuw %struct._zval_struct, ptr %14, i32 0, i32 0
  %16 = load ptr, ptr %15, align 8, !tbaa !47
  %17 = icmp ne ptr %16, null
  call void @llvm.assume(i1 %17)
  %18 = load ptr, ptr %6, align 8, !tbaa !9
  %19 = getelementptr inbounds nuw %struct._zval_struct, ptr %18, i32 0, i32 0
  %20 = load ptr, ptr %19, align 8, !tbaa !47
  store ptr %20, ptr %3, align 8
  store i32 1, ptr %7, align 4
  br label %22

21:                                               ; preds = %2
  store ptr null, ptr %3, align 8
  store i32 1, ptr %7, align 4
  br label %22

22:                                               ; preds = %21, %13
  call void @llvm.lifetime.end.p0(i64 8, ptr %6) #14
  %23 = load ptr, ptr %3, align 8
  ret ptr %23
}

; Function Attrs: nounwind uwtable
define hidden zeroext i1 @zend_optimizer_get_persistent_constant(ptr noundef %0, ptr noundef %1, i32 noundef %2) #0 {
  %4 = alloca i1, align 1
  %5 = alloca ptr, align 8
  %6 = alloca ptr, align 8
  %7 = alloca i32, align 4
  %8 = alloca ptr, align 8
  %9 = alloca ptr, align 8
  %10 = alloca ptr, align 8
  %11 = alloca ptr, align 8
  %12 = alloca i32, align 4
  %13 = alloca ptr, align 8
  %14 = alloca i32, align 4
  %15 = alloca ptr, align 8
  %16 = alloca ptr, align 8
  %17 = alloca ptr, align 8
  %18 = alloca i32, align 4
  store ptr %0, ptr %5, align 8, !tbaa !4
  store ptr %1, ptr %6, align 8, !tbaa !9
  store i32 %2, ptr %7, align 4, !tbaa !11
  call void @llvm.lifetime.start.p0(i64 8, ptr %8) #14
  %19 = load ptr, ptr getelementptr inbounds nuw (%struct._zend_executor_globals, ptr @executor_globals, i32 0, i32 14), align 8, !tbaa !13
  %20 = load ptr, ptr %5, align 8, !tbaa !4
  %21 = call ptr @zend_hash_find_ptr(ptr noundef %19, ptr noundef %20)
  store ptr %21, ptr %8, align 8, !tbaa !45
  %22 = load ptr, ptr %8, align 8, !tbaa !45
  %23 = icmp ne ptr %22, null
  br i1 %23, label %24, label %93

24:                                               ; preds = %3
  %25 = load ptr, ptr %8, align 8, !tbaa !45
  %26 = getelementptr inbounds nuw %struct._zend_constant, ptr %25, i32 0, i32 0
  %27 = getelementptr inbounds nuw %struct._zval_struct, ptr %26, i32 0, i32 2
  %28 = load i32, ptr %27, align 4, !tbaa !47
  %29 = and i32 %28, 255
  %30 = and i32 %29, 1
  %31 = icmp ne i32 %30, 0
  br i1 %31, label %32, label %92

32:                                               ; preds = %24
  %33 = load ptr, ptr %8, align 8, !tbaa !45
  %34 = getelementptr inbounds nuw %struct._zend_constant, ptr %33, i32 0, i32 0
  %35 = getelementptr inbounds nuw %struct._zval_struct, ptr %34, i32 0, i32 2
  %36 = load i32, ptr %35, align 4, !tbaa !47
  %37 = and i32 %36, 255
  %38 = and i32 %37, 4
  %39 = icmp ne i32 %38, 0
  br i1 %39, label %92, label %40

40:                                               ; preds = %32
  %41 = load ptr, ptr %8, align 8, !tbaa !45
  %42 = getelementptr inbounds nuw %struct._zend_constant, ptr %41, i32 0, i32 0
  %43 = getelementptr inbounds nuw %struct._zval_struct, ptr %42, i32 0, i32 2
  %44 = load i32, ptr %43, align 4, !tbaa !47
  %45 = and i32 %44, 255
  %46 = and i32 %45, 2
  %47 = icmp ne i32 %46, 0
  br i1 %47, label %48, label %52

48:                                               ; preds = %40
  %49 = load i32, ptr getelementptr inbounds nuw (%struct._zend_compiler_globals, ptr @compiler_globals, i32 0, i32 21), align 4, !tbaa !48
  %50 = and i32 %49, 4096
  %51 = icmp ne i32 %50, 0
  br i1 %51, label %92, label %52

52:                                               ; preds = %48, %40
  br label %53

53:                                               ; preds = %52
  call void @llvm.lifetime.start.p0(i64 8, ptr %9) #14
  %54 = load ptr, ptr %6, align 8, !tbaa !9
  store ptr %54, ptr %9, align 8, !tbaa !9
  call void @llvm.lifetime.start.p0(i64 8, ptr %10) #14
  %55 = load ptr, ptr %8, align 8, !tbaa !45
  %56 = getelementptr inbounds nuw %struct._zend_constant, ptr %55, i32 0, i32 0
  store ptr %56, ptr %10, align 8, !tbaa !9
  call void @llvm.lifetime.start.p0(i64 8, ptr %11) #14
  %57 = load ptr, ptr %10, align 8, !tbaa !9
  %58 = getelementptr inbounds nuw %struct._zval_struct, ptr %57, i32 0, i32 0
  %59 = load ptr, ptr %58, align 8, !tbaa !47
  store ptr %59, ptr %11, align 8, !tbaa !62
  call void @llvm.lifetime.start.p0(i64 4, ptr %12) #14
  %60 = load ptr, ptr %10, align 8, !tbaa !9
  %61 = getelementptr inbounds nuw %struct._zval_struct, ptr %60, i32 0, i32 1
  %62 = load i32, ptr %61, align 8, !tbaa !47
  store i32 %62, ptr %12, align 4, !tbaa !11
  br label %63

63:                                               ; preds = %53
  %64 = load ptr, ptr %11, align 8, !tbaa !62
  %65 = load ptr, ptr %9, align 8, !tbaa !9
  %66 = getelementptr inbounds nuw %struct._zval_struct, ptr %65, i32 0, i32 0
  store ptr %64, ptr %66, align 8, !tbaa !47
  %67 = load i32, ptr %12, align 4, !tbaa !11
  %68 = load ptr, ptr %9, align 8, !tbaa !9
  %69 = getelementptr inbounds nuw %struct._zval_struct, ptr %68, i32 0, i32 1
  store i32 %67, ptr %69, align 8, !tbaa !47
  br label %70

70:                                               ; preds = %63
  br label %71

71:                                               ; preds = %70
  call void @llvm.lifetime.end.p0(i64 4, ptr %12) #14
  call void @llvm.lifetime.end.p0(i64 8, ptr %11) #14
  call void @llvm.lifetime.end.p0(i64 8, ptr %10) #14
  call void @llvm.lifetime.end.p0(i64 8, ptr %9) #14
  br label %72

72:                                               ; preds = %71
  br label %73

73:                                               ; preds = %72
  %74 = load i32, ptr %7, align 4, !tbaa !11
  %75 = icmp ne i32 %74, 0
  br i1 %75, label %76, label %91

76:                                               ; preds = %73
  br label %77

77:                                               ; preds = %76
  call void @llvm.lifetime.start.p0(i64 8, ptr %13) #14
  %78 = load ptr, ptr %6, align 8, !tbaa !9
  store ptr %78, ptr %13, align 8, !tbaa !9
  %79 = load ptr, ptr %13, align 8, !tbaa !9
  %80 = getelementptr inbounds nuw %struct._zval_struct, ptr %79, i32 0, i32 1
  %81 = getelementptr inbounds nuw %struct.anon.0, ptr %80, i32 0, i32 1
  %82 = load i8, ptr %81, align 1, !tbaa !47
  %83 = zext i8 %82 to i32
  %84 = icmp ne i32 %83, 0
  br i1 %84, label %85, label %88

85:                                               ; preds = %77
  %86 = load ptr, ptr %13, align 8, !tbaa !9
  %87 = call i32 @zval_addref_p(ptr noundef %86)
  br label %88

88:                                               ; preds = %85, %77
  call void @llvm.lifetime.end.p0(i64 8, ptr %13) #14
  br label %89

89:                                               ; preds = %88
  br label %90

90:                                               ; preds = %89
  br label %91

91:                                               ; preds = %90, %73
  store i1 true, ptr %4, align 1
  store i32 1, ptr %14, align 4
  br label %126

92:                                               ; preds = %48, %32, %24
  store i1 false, ptr %4, align 1
  store i32 1, ptr %14, align 4
  br label %126

93:                                               ; preds = %3
  %94 = load ptr, ptr %5, align 8, !tbaa !4
  %95 = getelementptr inbounds nuw %struct._zend_string, ptr %94, i32 0, i32 3
  %96 = getelementptr inbounds [1 x i8], ptr %95, i64 0, i64 0
  %97 = load ptr, ptr %5, align 8, !tbaa !4
  %98 = getelementptr inbounds nuw %struct._zend_string, ptr %97, i32 0, i32 2
  %99 = load i64, ptr %98, align 8, !tbaa !64
  %100 = call ptr @zend_get_special_const(ptr noundef %96, i64 noundef %99)
  store ptr %100, ptr %8, align 8, !tbaa !45
  %101 = load ptr, ptr %8, align 8, !tbaa !45
  %102 = icmp ne ptr %101, null
  br i1 %102, label %103, label %125

103:                                              ; preds = %93
  br label %104

104:                                              ; preds = %103
  call void @llvm.lifetime.start.p0(i64 8, ptr %15) #14
  %105 = load ptr, ptr %6, align 8, !tbaa !9
  store ptr %105, ptr %15, align 8, !tbaa !9
  call void @llvm.lifetime.start.p0(i64 8, ptr %16) #14
  %106 = load ptr, ptr %8, align 8, !tbaa !45
  %107 = getelementptr inbounds nuw %struct._zend_constant, ptr %106, i32 0, i32 0
  store ptr %107, ptr %16, align 8, !tbaa !9
  call void @llvm.lifetime.start.p0(i64 8, ptr %17) #14
  %108 = load ptr, ptr %16, align 8, !tbaa !9
  %109 = getelementptr inbounds nuw %struct._zval_struct, ptr %108, i32 0, i32 0
  %110 = load ptr, ptr %109, align 8, !tbaa !47
  store ptr %110, ptr %17, align 8, !tbaa !62
  call void @llvm.lifetime.start.p0(i64 4, ptr %18) #14
  %111 = load ptr, ptr %16, align 8, !tbaa !9
  %112 = getelementptr inbounds nuw %struct._zval_struct, ptr %111, i32 0, i32 1
  %113 = load i32, ptr %112, align 8, !tbaa !47
  store i32 %113, ptr %18, align 4, !tbaa !11
  br label %114

114:                                              ; preds = %104
  %115 = load ptr, ptr %17, align 8, !tbaa !62
  %116 = load ptr, ptr %15, align 8, !tbaa !9
  %117 = getelementptr inbounds nuw %struct._zval_struct, ptr %116, i32 0, i32 0
  store ptr %115, ptr %117, align 8, !tbaa !47
  %118 = load i32, ptr %18, align 4, !tbaa !11
  %119 = load ptr, ptr %15, align 8, !tbaa !9
  %120 = getelementptr inbounds nuw %struct._zval_struct, ptr %119, i32 0, i32 1
  store i32 %118, ptr %120, align 8, !tbaa !47
  br label %121

121:                                              ; preds = %114
  br label %122

122:                                              ; preds = %121
  call void @llvm.lifetime.end.p0(i64 4, ptr %18) #14
  call void @llvm.lifetime.end.p0(i64 8, ptr %17) #14
  call void @llvm.lifetime.end.p0(i64 8, ptr %16) #14
  call void @llvm.lifetime.end.p0(i64 8, ptr %15) #14
  br label %123

123:                                              ; preds = %122
  br label %124

124:                                              ; preds = %123
  store i1 true, ptr %4, align 1
  store i32 1, ptr %14, align 4
  br label %126

125:                                              ; preds = %93
  store i1 false, ptr %4, align 1
  store i32 1, ptr %14, align 4
  br label %126

126:                                              ; preds = %125, %124, %92, %91
  call void @llvm.lifetime.end.p0(i64 8, ptr %8) #14
  %127 = load i1, ptr %4, align 1
  ret i1 %127
}