; Function Attrs: nounwind uwtable
define hidden noundef zeroext i1 @zend_optimizer_get_persistent_constant(ptr noundef %0, ptr noundef writeonly captures(none) %1, i32 noundef %2) local_unnamed_addr #0 {
  %4 = load ptr, ptr getelementptr inbounds nuw (i8, ptr @executor_globals, i64 472), align 8, !tbaa !4
  %5 = tail call ptr @zend_hash_find(ptr noundef %4, ptr noundef %0) #12
  %.not.i = icmp eq ptr %5, null
  br i1 %.not.i, label %25, label %6

6:                                                ; preds = %3
  %7 = load ptr, ptr %5, align 8, !tbaa !42, !nonnull !43, !noundef !43
  %8 = getelementptr inbounds nuw i8, ptr %7, i64 12
  %9 = load i32, ptr %8, align 4, !tbaa !42
  %10 = and i32 %9, 5
  %or.cond = icmp eq i32 %10, 1
  br i1 %or.cond, label %11, label %zend_get_special_const.exit.thread

11:                                               ; preds = %6
  %12 = and i32 %9, 2
  %.not33 = icmp eq i32 %12, 0
  br i1 %.not33, label %16, label %13

13:                                               ; preds = %11
  %14 = load i32, ptr getelementptr inbounds nuw (i8, ptr @compiler_globals, i64 172), align 4, !tbaa !44
  %15 = and i32 %14, 4096
  %.not34 = icmp eq i32 %15, 0
  br i1 %.not34, label %16, label %zend_get_special_const.exit.thread

16:                                               ; preds = %11, %13
  %17 = load ptr, ptr %7, align 8, !tbaa !42
  %18 = getelementptr inbounds nuw i8, ptr %7, i64 8
  %19 = load i32, ptr %18, align 8, !tbaa !42
  store ptr %17, ptr %1, align 8, !tbaa !42
  %20 = getelementptr inbounds nuw i8, ptr %1, i64 8
  store i32 %19, ptr %20, align 8, !tbaa !42
  %.not35 = icmp eq i32 %2, 0
  %21 = and i32 %19, 65280
  %.not36 = icmp eq i32 %21, 0
  %or.cond42 = select i1 %.not35, i1 true, i1 %.not36
  br i1 %or.cond42, label %zend_get_special_const.exit.thread, label %22

22:                                               ; preds = %16
  %23 = load i32, ptr %17, align 4, !tbaa !58
  %24 = add i32 %23, 1
  store i32 %24, ptr %17, align 4, !tbaa !58
  br label %zend_get_special_const.exit.thread

25:                                               ; preds = %3
  %26 = getelementptr inbounds nuw i8, ptr %0, i64 16
  %27 = load i64, ptr %26, align 8, !tbaa !59
  %28 = and i64 %27, -2
  %or.cond.i = icmp eq i64 %28, 4
  br i1 %or.cond.i, label %zend_get_special_const.exit, label %zend_get_special_const.exit.thread

zend_get_special_const.exit:                      ; preds = %25
  %29 = getelementptr inbounds nuw i8, ptr %0, i64 24
  %30 = tail call ptr @_zend_get_special_const(ptr noundef nonnull %29, i64 noundef %27) #12
  %.not30 = icmp eq ptr %30, null
  br i1 %.not30, label %zend_get_special_const.exit.thread, label %31

31:                                               ; preds = %zend_get_special_const.exit
  %32 = load ptr, ptr %30, align 8, !tbaa !42
  %33 = getelementptr inbounds nuw i8, ptr %30, i64 8
  %34 = load i32, ptr %33, align 8, !tbaa !42
  store ptr %32, ptr %1, align 8, !tbaa !42
  %35 = getelementptr inbounds nuw i8, ptr %1, i64 8
  store i32 %34, ptr %35, align 8, !tbaa !42
  br label %zend_get_special_const.exit.thread

zend_get_special_const.exit.thread:               ; preds = %25, %zend_get_special_const.exit, %6, %13, %16, %22, %31
  %.0 = phi i1 [ true, %31 ], [ true, %22 ], [ true, %16 ], [ false, %13 ], [ false, %6 ], [ false, %zend_get_special_const.exit ], [ false, %25 ]
  ret i1 %.0
}